; Function Attrs: nounwind uwtable
define ptr @l_Array_forIn_x27Unsafe_loop___at_Lean_Meta_Try_Collector_main_go___spec__5___boxed(ptr noundef %0, ptr noundef %1, ptr noundef %2, ptr noundef %3, ptr noundef %4, ptr noundef %5, ptr noundef %6, ptr noundef %7, ptr noundef %8, ptr noundef %9, ptr noundef %10, ptr noundef %11, ptr noundef %12, ptr noundef %13, ptr noundef %14) local_unnamed_addr #0 {
  %16 = getelementptr i8, ptr %4, i64 8
  %.val38 = load i64, ptr %16, align 8, !tbaa !14
  %17 = ptrtoint ptr %4 to i64
  %18 = and i64 %17, 1
  %.not = icmp eq i64 %18, 0
  br i1 %.not, label %19, label %lean_dec.exit27

19:                                               ; preds = %15
  %20 = load i32, ptr %4, align 4, !tbaa !8
  %21 = icmp sgt i32 %20, 1
  br i1 %21, label %22, label %24, !prof !13

22:                                               ; preds = %19
  %23 = add nsw i32 %20, -1
  store i32 %23, ptr %4, align 4, !tbaa !8
  br label %lean_dec.exit27

24:                                               ; preds = %19
  %.not.i = icmp eq i32 %20, 0
  br i1 %.not.i, label %lean_dec.exit27, label %25

25:                                               ; preds = %24
  tail call void @lean_dec_ref_cold(ptr noundef nonnull %4) #5
  br label %lean_dec.exit27

lean_dec.exit27:                                  ; preds = %25, %24, %22, %15
  %26 = getelementptr i8, ptr %5, i64 8
  %.val = load i64, ptr %26, align 8, !tbaa !14
  %27 = ptrtoint ptr %5 to i64
  %28 = and i64 %27, 1
  %.not39 = icmp eq i64 %28, 0
  br i1 %.not39, label %29, label %lean_dec.exit26

29:                                               ; preds = %lean_dec.exit27
  %30 = load i32, ptr %5, align 4, !tbaa !8
  %31 = icmp sgt i32 %30, 1
  br i1 %31, label %32, label %34, !prof !13

32:                                               ; preds = %29
  %33 = add nsw i32 %30, -1
  store i32 %33, ptr %5, align 4, !tbaa !8
  br label %lean_dec.exit26

34:                                               ; preds = %29
  %.not.i28 = icmp eq i32 %30, 0
  br i1 %.not.i28, label %lean_dec.exit26, label %35

35:                                               ; preds = %34
  tail call void @lean_dec_ref_cold(ptr noundef nonnull %5) #5
  br label %lean_dec.exit26

lean_dec.exit26:                                  ; preds = %35, %34, %32, %lean_dec.exit27
  %36 = tail call ptr @l_Array_forIn_x27Unsafe_loop___at_Lean_Meta_Try_Collector_main_go___spec__5(ptr poison, ptr poison, ptr noundef %2, ptr noundef %3, i64 noundef %.val38, i64 noundef %.val, ptr noundef %6, ptr noundef %7, ptr noundef %8, ptr noundef %9, ptr noundef %10, ptr noundef %11, ptr noundef %12, ptr noundef %13, ptr noundef %14)
  %37 = ptrtoint ptr %7 to i64
  %38 = and i64 %37, 1
  %.not40 = icmp eq i64 %38, 0
  br i1 %.not40, label %39, label %lean_dec.exit25

39:                                               ; preds = %lean_dec.exit26
  %40 = load i32, ptr %7, align 4, !tbaa !8
  %41 = icmp sgt i32 %40, 1
  br i1 %41, label %42, label %44, !prof !13

42:                                               ; preds = %39
  %43 = add nsw i32 %40, -1
  store i32 %43, ptr %7, align 4, !tbaa !8
  br label %lean_dec.exit25

44:                                               ; preds = %39
  %.not.i30 = icmp eq i32 %40, 0
  br i1 %.not.i30, label %lean_dec.exit25, label %45

45:                                               ; preds = %44
  tail call void @lean_dec_ref_cold(ptr noundef nonnull %7) #5
  br label %lean_dec.exit25

lean_dec.exit25:                                  ; preds = %45, %44, %42, %lean_dec.exit26
  %46 = ptrtoint ptr %3 to i64
  %47 = and i64 %46, 1
  %.not41 = icmp eq i64 %47, 0
  br i1 %.not41, label %48, label %lean_dec.exit24

48:                                               ; preds = %lean_dec.exit25
  %49 = load i32, ptr %3, align 4, !tbaa !8
  %50 = icmp sgt i32 %49, 1
  br i1 %50, label %51, label %53, !prof !13

51:                                               ; preds = %48
  %52 = add nsw i32 %49, -1
  store i32 %52, ptr %3, align 4, !tbaa !8
  br label %lean_dec.exit24

53:                                               ; preds = %48
  %.not.i32 = icmp eq i32 %49, 0
  br i1 %.not.i32, label %lean_dec.exit24, label %54

54:                                               ; preds = %53
  tail call void @lean_dec_ref_cold(ptr noundef nonnull %3) #5
  br label %lean_dec.exit24

lean_dec.exit24:                                  ; preds = %54, %53, %51, %lean_dec.exit25
  %55 = ptrtoint ptr %1 to i64
  %56 = and i64 %55, 1
  %.not42 = icmp eq i64 %56, 0
  br i1 %.not42, label %57, label %lean_dec.exit23

57:                                               ; preds = %lean_dec.exit24
  %58 = load i32, ptr %1, align 4, !tbaa !8
  %59 = icmp sgt i32 %58, 1
  br i1 %59, label %60, label %62, !prof !13

60:                                               ; preds = %57
  %61 = add nsw i32 %58, -1
  store i32 %61, ptr %1, align 4, !tbaa !8
  br label %lean_dec.exit23

62:                                               ; preds = %57
  %.not.i34 = icmp eq i32 %58, 0
  br i1 %.not.i34, label %lean_dec.exit23, label %63

63:                                               ; preds = %62
  tail call void @lean_dec_ref_cold(ptr noundef nonnull %1) #5
  br label %lean_dec.exit23

lean_dec.exit23:                                  ; preds = %63, %62, %60, %lean_dec.exit24
  %64 = ptrtoint ptr %0 to i64
  %65 = and i64 %64, 1
  %.not43 = icmp eq i64 %65, 0
  br i1 %.not43, label %66, label %lean_dec.exit

66:                                               ; preds = %lean_dec.exit23
  %67 = load i32, ptr %0, align 4, !tbaa !8
  %68 = icmp sgt i32 %67, 1
  br i1 %68, label %69, label %71, !prof !13

69:                                               ; preds = %66
  %70 = add nsw i32 %67, -1
  store i32 %70, ptr %0, align 4, !tbaa !8
  br label %lean_dec.exit

71:                                               ; preds = %66
  %.not.i36 = icmp eq i32 %67, 0
  br i1 %.not.i36, label %lean_dec.exit, label %72

72:                                               ; preds = %71
  tail call void @lean_dec_ref_cold(ptr noundef nonnull %0) #5
  br label %lean_dec.exit

lean_dec.exit:                                    ; preds = %72, %71, %69, %lean_dec.exit23
  ret ptr %36
}